target datalayout = "e-m:e-p270:32:32-p271:32:32-p272:64:64-i64:64-i128:128-f80:128-n8:16:32:64-S128"
target triple = "x86_64-pc-linux-gnu"

@_ZN19OpenColorIO_v2_5dev12_GLOBAL__N_123INTERPOLATION_3D_LINEARE = internal constant [10 x i8] c"trilinear\00", align 1
@_ZN19OpenColorIO_v2_5dev12_GLOBAL__N_128INTERPOLATION_3D_TETRAHEDRALE = internal constant [12 x i8] c"tetrahedral\00", align 1

; Function Attrs: mustprogress nounwind uwtable
define hidden noundef ptr @_ZN19OpenColorIO_v2_5dev22GetInterpolation3DNameENS_13InterpolationE(i32 noundef %0) #4 {
  %2 = alloca ptr, align 8
  %3 = alloca i32, align 4
  store i32 %0, ptr %3, align 4, !tbaa !17
  %4 = load i32, ptr %3, align 4, !tbaa !17
  switch i32 %4, label %8 [
    i32 2, label %5
    i32 3, label %6
    i32 255, label %6
    i32 254, label %7
    i32 1, label %7
    i32 4, label %7
    i32 0, label %7
  ]

5:                                                ; preds = %1
  store ptr @_ZN19OpenColorIO_v2_5dev12_GLOBAL__N_123INTERPOLATION_3D_LINEARE, ptr %2, align 8
  br label %9

6:                                                ; preds = %1, %1
  store ptr @_ZN19OpenColorIO_v2_5dev12_GLOBAL__N_128INTERPOLATION_3D_TETRAHEDRALE, ptr %2, align 8
  br label %9

7:                                                ; preds = %1, %1, %1, %1
  store ptr null, ptr %2, align 8
  br label %9

8:                                                ; preds = %1
  store ptr null, ptr %2, align 8
  br label %9

9:                                                ; preds = %8, %7, %6, %5
  %10 = load ptr, ptr %2, align 8
  ret ptr %10
}